
cachetest.elf:     file format elf32-littleriscv


Disassembly of section .text:

01000000 <main>:
 1000000:	fe010113          	addi	x2,x2,-32
 1000004:	00112e23          	sw	x1,28(x2)
 1000008:	00812c23          	sw	x8,24(x2)
 100000c:	02010413          	addi	x8,x2,32
 1000010:	00000797          	auipc	x15,0x0
 1000014:	1ac78793          	addi	x15,x15,428 # 10001bc <x>
 1000018:	00100713          	li	x14,1
 100001c:	00e7a023          	sw	x14,0(x15)
 1000020:	00100793          	li	x15,1
 1000024:	fef42623          	sw	x15,-20(x8)
 1000028:	0a40006f          	j	10000cc <main+0xcc>
 100002c:	fec42783          	lw	x15,-20(x8)
 1000030:	fff78793          	addi	x15,x15,-1
 1000034:	00000717          	auipc	x14,0x0
 1000038:	18870713          	addi	x14,x14,392 # 10001bc <x>
 100003c:	00279793          	slli	x15,x15,0x2
 1000040:	00f707b3          	add	x15,x14,x15
 1000044:	0007a783          	lw	x15,0(x15)
 1000048:	4017d713          	srai	x14,x15,0x1
 100004c:	000047b7          	lui	x15,0x4
 1000050:	fff78793          	addi	x15,x15,-1 # 3fff <main-0xffc001>
 1000054:	00f77733          	and	x14,x14,x15
 1000058:	fec42783          	lw	x15,-20(x8)
 100005c:	fff78793          	addi	x15,x15,-1
 1000060:	00000697          	auipc	x13,0x0
 1000064:	15c68693          	addi	x13,x13,348 # 10001bc <x>
 1000068:	00279793          	slli	x15,x15,0x2
 100006c:	00f687b3          	add	x15,x13,x15
 1000070:	0007a683          	lw	x13,0(x15)
 1000074:	fec42783          	lw	x15,-20(x8)
 1000078:	fff78793          	addi	x15,x15,-1
 100007c:	00000617          	auipc	x12,0x0
 1000080:	14060613          	addi	x12,x12,320 # 10001bc <x>
 1000084:	00279793          	slli	x15,x15,0x2
 1000088:	00f607b3          	add	x15,x12,x15
 100008c:	0007a783          	lw	x15,0(x15)
 1000090:	4017d793          	srai	x15,x15,0x1
 1000094:	00f6c7b3          	xor	x15,x13,x15
 1000098:	00e79693          	slli	x13,x15,0xe
 100009c:	000047b7          	lui	x15,0x4
 10000a0:	00f6f7b3          	and	x15,x13,x15
 10000a4:	00f76733          	or	x14,x14,x15
 10000a8:	00000697          	auipc	x13,0x0
 10000ac:	11468693          	addi	x13,x13,276 # 10001bc <x>
 10000b0:	fec42783          	lw	x15,-20(x8)
 10000b4:	00279793          	slli	x15,x15,0x2
 10000b8:	00f687b3          	add	x15,x13,x15
 10000bc:	00e7a023          	sw	x14,0(x15) # 4000 <main-0xffc000>
 10000c0:	fec42783          	lw	x15,-20(x8)
 10000c4:	00178793          	addi	x15,x15,1
 10000c8:	fef42623          	sw	x15,-20(x8)
 10000cc:	fec42703          	lw	x14,-20(x8)
 10000d0:	000087b7          	lui	x15,0x8
 10000d4:	ffe78793          	addi	x15,x15,-2 # 7ffe <main-0xff8002>
 10000d8:	f4e7dae3          	bge	x15,x14,100002c <main+0x2c>
 10000dc:	fe042423          	sw	x0,-24(x8)
 10000e0:	fe042623          	sw	x0,-20(x8)
 10000e4:	05c0006f          	j	1000140 <main+0x140>
 10000e8:	00000717          	auipc	x14,0x0
 10000ec:	0d470713          	addi	x14,x14,212 # 10001bc <x>
 10000f0:	fec42783          	lw	x15,-20(x8)
 10000f4:	00279793          	slli	x15,x15,0x2
 10000f8:	00f707b3          	add	x15,x14,x15
 10000fc:	0007a703          	lw	x14,0(x15)
 1000100:	000087b7          	lui	x15,0x8
 1000104:	ffe78693          	addi	x13,x15,-2 # 7ffe <main-0xff8002>
 1000108:	fec42783          	lw	x15,-20(x8)
 100010c:	40f687b3          	sub	x15,x13,x15
 1000110:	00000697          	auipc	x13,0x0
 1000114:	0ac68693          	addi	x13,x13,172 # 10001bc <x>
 1000118:	00279793          	slli	x15,x15,0x2
 100011c:	00f687b3          	add	x15,x13,x15
 1000120:	0007a783          	lw	x15,0(x15)
 1000124:	00f707b3          	add	x15,x14,x15
 1000128:	fe842703          	lw	x14,-24(x8)
 100012c:	00f707b3          	add	x15,x14,x15
 1000130:	fef42423          	sw	x15,-24(x8)
 1000134:	fec42783          	lw	x15,-20(x8)
 1000138:	00178793          	addi	x15,x15,1
 100013c:	fef42623          	sw	x15,-20(x8)
 1000140:	fec42703          	lw	x14,-20(x8)
 1000144:	000087b7          	lui	x15,0x8
 1000148:	ffe78793          	addi	x15,x15,-2 # 7ffe <main-0xff8002>
 100014c:	f8e7dee3          	bge	x15,x14,10000e8 <main+0xe8>
 1000150:	fe842783          	lw	x15,-24(x8)
 1000154:	3fff85b7          	lui	x11,0x3fff8
 1000158:	00078513          	mv	x10,x15
 100015c:	028000ef          	jal	x1,1000184 <assert_equals>
 1000160:	00050793          	mv	x15,x10
 1000164:	00078863          	beqz	x15,1000174 <main+0x174>
 1000168:	00100793          	li	x15,1
 100016c:	51e79073          	csrw	0x51e,x15
 1000170:	00c0006f          	j	100017c <main+0x17c>
 1000174:	00200793          	li	x15,2
 1000178:	51e79073          	csrw	0x51e,x15
 100017c:	00000013          	nop
 1000180:	ffdff06f          	j	100017c <main+0x17c>

01000184 <assert_equals>:
 1000184:	fe010113          	addi	x2,x2,-32
 1000188:	00812e23          	sw	x8,28(x2)
 100018c:	02010413          	addi	x8,x2,32
 1000190:	fea42623          	sw	x10,-20(x8)
 1000194:	feb42423          	sw	x11,-24(x8)
 1000198:	fec42703          	lw	x14,-20(x8)
 100019c:	fe842783          	lw	x15,-24(x8)
 10001a0:	40f707b3          	sub	x15,x14,x15
 10001a4:	0017b793          	seqz	x15,x15
 10001a8:	0ff7f793          	andi	x15,x15,255
 10001ac:	00078513          	mv	x10,x15
 10001b0:	01c12403          	lw	x8,28(x2)
 10001b4:	02010113          	addi	x2,x2,32
 10001b8:	00008067          	ret
