
fib.elf:     file format elf32-littleriscv


Disassembly of section .text:

01000000 <main>:
 1000000:	fe010113          	addi	x2,x2,-32
 1000004:	00112e23          	sw	x1,28(x2)
 1000008:	00812c23          	sw	x8,24(x2)
 100000c:	02010413          	addi	x8,x2,32
 1000010:	00000797          	auipc	x15,0x0
 1000014:	11078793          	addi	x15,x15,272 # 1000120 <x>
 1000018:	0007a023          	sw	x0,0(x15)
 100001c:	00000797          	auipc	x15,0x0
 1000020:	10478793          	addi	x15,x15,260 # 1000120 <x>
 1000024:	00100713          	li	x14,1
 1000028:	00e7a223          	sw	x14,4(x15)
 100002c:	00200793          	li	x15,2
 1000030:	fef42623          	sw	x15,-20(x8)
 1000034:	0640006f          	j	1000098 <main+0x98>
 1000038:	fec42783          	lw	x15,-20(x8)
 100003c:	fff78793          	addi	x15,x15,-1
 1000040:	00000717          	auipc	x14,0x0
 1000044:	0e070713          	addi	x14,x14,224 # 1000120 <x>
 1000048:	00279793          	slli	x15,x15,0x2
 100004c:	00f707b3          	add	x15,x14,x15
 1000050:	0007a703          	lw	x14,0(x15)
 1000054:	fec42783          	lw	x15,-20(x8)
 1000058:	ffe78793          	addi	x15,x15,-2
 100005c:	00000697          	auipc	x13,0x0
 1000060:	0c468693          	addi	x13,x13,196 # 1000120 <x>
 1000064:	00279793          	slli	x15,x15,0x2
 1000068:	00f687b3          	add	x15,x13,x15
 100006c:	0007a783          	lw	x15,0(x15)
 1000070:	00f70733          	add	x14,x14,x15
 1000074:	00000697          	auipc	x13,0x0
 1000078:	0ac68693          	addi	x13,x13,172 # 1000120 <x>
 100007c:	fec42783          	lw	x15,-20(x8)
 1000080:	00279793          	slli	x15,x15,0x2
 1000084:	00f687b3          	add	x15,x13,x15
 1000088:	00e7a023          	sw	x14,0(x15)
 100008c:	fec42783          	lw	x15,-20(x8)
 1000090:	00178793          	addi	x15,x15,1
 1000094:	fef42623          	sw	x15,-20(x8)
 1000098:	fec42703          	lw	x14,-20(x8)
 100009c:	09500793          	li	x15,149
 10000a0:	f8e7dce3          	bge	x15,x14,1000038 <main+0x38>
 10000a4:	00000797          	auipc	x15,0x0
 10000a8:	07c78793          	addi	x15,x15,124 # 1000120 <x>
 10000ac:	08c7a783          	lw	x15,140(x15)
 10000b0:	00078713          	mv	x14,x15
 10000b4:	008cd7b7          	lui	x15,0x8cd
 10000b8:	cc978593          	addi	x11,x15,-823 # 8cccc9 <main-0x733337>
 10000bc:	00070513          	mv	x10,x14
 10000c0:	028000ef          	jal	x1,10000e8 <assert_equals>
 10000c4:	00050793          	mv	x15,x10
 10000c8:	00078863          	beqz	x15,10000d8 <main+0xd8>
 10000cc:	00100793          	li	x15,1
 10000d0:	51e79073          	csrw	0x51e,x15
 10000d4:	00c0006f          	j	10000e0 <main+0xe0>
 10000d8:	00200793          	li	x15,2
 10000dc:	51e79073          	csrw	0x51e,x15
 10000e0:	00000013          	nop
 10000e4:	ffdff06f          	j	10000e0 <main+0xe0>

010000e8 <assert_equals>:
 10000e8:	fe010113          	addi	x2,x2,-32
 10000ec:	00812e23          	sw	x8,28(x2)
 10000f0:	02010413          	addi	x8,x2,32
 10000f4:	fea42623          	sw	x10,-20(x8)
 10000f8:	feb42423          	sw	x11,-24(x8)
 10000fc:	fec42703          	lw	x14,-20(x8)
 1000100:	fe842783          	lw	x15,-24(x8)
 1000104:	40f707b3          	sub	x15,x14,x15
 1000108:	0017b793          	seqz	x15,x15
 100010c:	0ff7f793          	andi	x15,x15,255
 1000110:	00078513          	mv	x10,x15
 1000114:	01c12403          	lw	x8,28(x2)
 1000118:	02010113          	addi	x2,x2,32
 100011c:	00008067          	ret

Disassembly of section .bss:

01000120 <x>:
	...

Disassembly of section .comment:

00000000 <.comment>:
   0:	3a434347          	fmsub.d	f6,f6,f4,f7,rmm
   4:	2820                	fld	f8,80(x8)
   6:	69466953          	0x69466953
   a:	6576                	flw	f10,92(x2)
   c:	4720                	lw	x8,72(x14)
   e:	38204343          	fmadd.s	f6,f0,f2,f7,rmm
  12:	322e                	fld	f4,232(x2)
  14:	302e                	fld	f0,232(x2)
  16:	322d                	jal	fffff940 <x+0xfefff820>
  18:	3130                	fld	f12,96(x10)
  1a:	2e39                	jal	338 <main-0xfffcc8>
  1c:	3530                	fld	f12,104(x10)
  1e:	332e                	fld	f6,232(x2)
  20:	2029                	jal	2a <main-0xffffd6>
  22:	2e38                	fld	f14,88(x12)
  24:	2e32                	fld	f28,264(x2)
  26:	0030                	addi	x12,x2,8

Disassembly of section .riscv.attributes:

00000000 <.riscv.attributes>:
   0:	1941                	addi	x18,x18,-16
   2:	0000                	unimp
   4:	7200                	flw	f8,32(x12)
   6:	7369                	lui	x6,0xffffa
   8:	01007663          	bgeu	x0,x16,14 <main-0xffffec>
   c:	0000000f          	fence	unknown,unknown
  10:	7205                	lui	x4,0xfffe1
  12:	3376                	fld	f6,376(x2)
  14:	6932                	flw	f18,12(x2)
  16:	7032                	flw	f0,44(x2)
  18:	0030                	addi	x12,x2,8
