
final.elf:     file format elf32-littleriscv


Disassembly of section .text:

01000000 <main>:
 1000000:	ff010113          	addi	x2,x2,-16
 1000004:	00112623          	sw	x1,12(x2)
 1000008:	00812423          	sw	x8,8(x2)
 100000c:	01010413          	addi	x8,x2,16
 1000010:	00600513          	li	x10,6
 1000014:	0a8000ef          	jal	x1,10000bc <fibonacci>
 1000018:	00050793          	mv	x15,x10
 100001c:	00d00593          	li	x11,13
 1000020:	00078513          	mv	x10,x15
 1000024:	118000ef          	jal	x1,100013c <assert_equals>
 1000028:	00050793          	mv	x15,x10
 100002c:	08078063          	beqz	x15,10000ac <main+0xac>
 1000030:	00500613          	li	x12,5
 1000034:	00000597          	auipc	x11,0x0
 1000038:	3b458593          	addi	x11,x11,948 # 10003e8 <y>
 100003c:	00000517          	auipc	x10,0x0
 1000040:	39850513          	addi	x10,x10,920 # 10003d4 <x>
 1000044:	130000ef          	jal	x1,1000174 <dotp>
 1000048:	00050793          	mv	x15,x10
 100004c:	00900593          	li	x11,9
 1000050:	00078513          	mv	x10,x15
 1000054:	0e8000ef          	jal	x1,100013c <assert_equals>
 1000058:	00050793          	mv	x15,x10
 100005c:	04078263          	beqz	x15,10000a0 <main+0xa0>
 1000060:	00000517          	auipc	x10,0x0
 1000064:	39c50513          	addi	x10,x10,924 # 10003fc <str>
 1000068:	22c000ef          	jal	x1,1000294 <upcase>
 100006c:	00000597          	auipc	x11,0x0
 1000070:	35c58593          	addi	x11,x11,860 # 10003c8 <my_strcmp+0x94>
 1000074:	00000517          	auipc	x10,0x0
 1000078:	38850513          	addi	x10,x10,904 # 10003fc <str>
 100007c:	2b8000ef          	jal	x1,1000334 <my_strcmp>
 1000080:	00050793          	mv	x15,x10
 1000084:	00078863          	beqz	x15,1000094 <main+0x94>
 1000088:	00100793          	li	x15,1
 100008c:	51e79073          	csrw	0x51e,x15
 1000090:	0240006f          	j	10000b4 <main+0xb4>
 1000094:	00400793          	li	x15,4
 1000098:	51e79073          	csrw	0x51e,x15
 100009c:	0180006f          	j	10000b4 <main+0xb4>
 10000a0:	00300793          	li	x15,3
 10000a4:	51e79073          	csrw	0x51e,x15
 10000a8:	00c0006f          	j	10000b4 <main+0xb4>
 10000ac:	00200793          	li	x15,2
 10000b0:	51e79073          	csrw	0x51e,x15
 10000b4:	00000013          	nop
 10000b8:	ffdff06f          	j	10000b4 <main+0xb4>

010000bc <fibonacci>:
 10000bc:	fe010113          	addi	x2,x2,-32
 10000c0:	00112e23          	sw	x1,28(x2)
 10000c4:	00812c23          	sw	x8,24(x2)
 10000c8:	00912a23          	sw	x9,20(x2)
 10000cc:	02010413          	addi	x8,x2,32
 10000d0:	fea42623          	sw	x10,-20(x8)
 10000d4:	fec42783          	lw	x15,-20(x8)
 10000d8:	00079663          	bnez	x15,10000e4 <fibonacci+0x28>
 10000dc:	00100793          	li	x15,1
 10000e0:	0440006f          	j	1000124 <fibonacci+0x68>
 10000e4:	fec42703          	lw	x14,-20(x8)
 10000e8:	00100793          	li	x15,1
 10000ec:	00f71663          	bne	x14,x15,10000f8 <fibonacci+0x3c>
 10000f0:	00100793          	li	x15,1
 10000f4:	0300006f          	j	1000124 <fibonacci+0x68>
 10000f8:	fec42783          	lw	x15,-20(x8)
 10000fc:	fff78793          	addi	x15,x15,-1
 1000100:	00078513          	mv	x10,x15
 1000104:	fb9ff0ef          	jal	x1,10000bc <fibonacci>
 1000108:	00050493          	mv	x9,x10
 100010c:	fec42783          	lw	x15,-20(x8)
 1000110:	ffe78793          	addi	x15,x15,-2
 1000114:	00078513          	mv	x10,x15
 1000118:	fa5ff0ef          	jal	x1,10000bc <fibonacci>
 100011c:	00050793          	mv	x15,x10
 1000120:	00f487b3          	add	x15,x9,x15
 1000124:	00078513          	mv	x10,x15
 1000128:	01c12083          	lw	x1,28(x2)
 100012c:	01812403          	lw	x8,24(x2)
 1000130:	01412483          	lw	x9,20(x2)
 1000134:	02010113          	addi	x2,x2,32
 1000138:	00008067          	ret

0100013c <assert_equals>:
 100013c:	fe010113          	addi	x2,x2,-32
 1000140:	00812e23          	sw	x8,28(x2)
 1000144:	02010413          	addi	x8,x2,32
 1000148:	fea42623          	sw	x10,-20(x8)
 100014c:	feb42423          	sw	x11,-24(x8)
 1000150:	fec42703          	lw	x14,-20(x8)
 1000154:	fe842783          	lw	x15,-24(x8)
 1000158:	40f707b3          	sub	x15,x14,x15
 100015c:	0017b793          	seqz	x15,x15
 1000160:	0ff7f793          	andi	x15,x15,255
 1000164:	00078513          	mv	x10,x15
 1000168:	01c12403          	lw	x8,28(x2)
 100016c:	02010113          	addi	x2,x2,32
 1000170:	00008067          	ret

01000174 <dotp>:
 1000174:	fd010113          	addi	x2,x2,-48
 1000178:	02112623          	sw	x1,44(x2)
 100017c:	02812423          	sw	x8,40(x2)
 1000180:	03010413          	addi	x8,x2,48
 1000184:	fca42e23          	sw	x10,-36(x8)
 1000188:	fcb42c23          	sw	x11,-40(x8)
 100018c:	fcc42a23          	sw	x12,-44(x8)
 1000190:	fe042623          	sw	x0,-20(x8)
 1000194:	fe042423          	sw	x0,-24(x8)
 1000198:	0540006f          	j	10001ec <dotp+0x78>
 100019c:	fe842783          	lw	x15,-24(x8)
 10001a0:	00279793          	slli	x15,x15,0x2
 10001a4:	fdc42703          	lw	x14,-36(x8)
 10001a8:	00f707b3          	add	x15,x14,x15
 10001ac:	0007a683          	lw	x13,0(x15)
 10001b0:	fe842783          	lw	x15,-24(x8)
 10001b4:	00279793          	slli	x15,x15,0x2
 10001b8:	fd842703          	lw	x14,-40(x8)
 10001bc:	00f707b3          	add	x15,x14,x15
 10001c0:	0007a783          	lw	x15,0(x15)
 10001c4:	00078593          	mv	x11,x15
 10001c8:	00068513          	mv	x10,x13
 10001cc:	044000ef          	jal	x1,1000210 <mul>
 10001d0:	00050713          	mv	x14,x10
 10001d4:	fec42783          	lw	x15,-20(x8)
 10001d8:	00e787b3          	add	x15,x15,x14
 10001dc:	fef42623          	sw	x15,-20(x8)
 10001e0:	fe842783          	lw	x15,-24(x8)
 10001e4:	00178793          	addi	x15,x15,1
 10001e8:	fef42423          	sw	x15,-24(x8)
 10001ec:	fe842703          	lw	x14,-24(x8)
 10001f0:	fd442783          	lw	x15,-44(x8)
 10001f4:	faf744e3          	blt	x14,x15,100019c <dotp+0x28>
 10001f8:	fec42783          	lw	x15,-20(x8)
 10001fc:	00078513          	mv	x10,x15
 1000200:	02c12083          	lw	x1,44(x2)
 1000204:	02812403          	lw	x8,40(x2)
 1000208:	03010113          	addi	x2,x2,48
 100020c:	00008067          	ret

01000210 <mul>:
 1000210:	fd010113          	addi	x2,x2,-48
 1000214:	02812623          	sw	x8,44(x2)
 1000218:	03010413          	addi	x8,x2,48
 100021c:	fca42e23          	sw	x10,-36(x8)
 1000220:	fcb42c23          	sw	x11,-40(x8)
 1000224:	fe042623          	sw	x0,-20(x8)
 1000228:	fe042423          	sw	x0,-24(x8)
 100022c:	0480006f          	j	1000274 <mul+0x64>
 1000230:	fe842783          	lw	x15,-24(x8)
 1000234:	00100713          	li	x14,1
 1000238:	00f717b3          	sll	x15,x14,x15
 100023c:	fef42223          	sw	x15,-28(x8)
 1000240:	fe442703          	lw	x14,-28(x8)
 1000244:	fd842783          	lw	x15,-40(x8)
 1000248:	00f777b3          	and	x15,x14,x15
 100024c:	00078e63          	beqz	x15,1000268 <mul+0x58>
 1000250:	fe842783          	lw	x15,-24(x8)
 1000254:	fdc42703          	lw	x14,-36(x8)
 1000258:	00f717b3          	sll	x15,x14,x15
 100025c:	fec42703          	lw	x14,-20(x8)
 1000260:	00f707b3          	add	x15,x14,x15
 1000264:	fef42623          	sw	x15,-20(x8)
 1000268:	fe842783          	lw	x15,-24(x8)
 100026c:	00178793          	addi	x15,x15,1
 1000270:	fef42423          	sw	x15,-24(x8)
 1000274:	fe842703          	lw	x14,-24(x8)
 1000278:	01f00793          	li	x15,31
 100027c:	fae7fae3          	bgeu	x15,x14,1000230 <mul+0x20>
 1000280:	fec42783          	lw	x15,-20(x8)
 1000284:	00078513          	mv	x10,x15
 1000288:	02c12403          	lw	x8,44(x2)
 100028c:	03010113          	addi	x2,x2,48
 1000290:	00008067          	ret

01000294 <upcase>:
 1000294:	fd010113          	addi	x2,x2,-48
 1000298:	02812623          	sw	x8,44(x2)
 100029c:	03010413          	addi	x8,x2,48
 10002a0:	fca42e23          	sw	x10,-36(x8)
 10002a4:	fe042623          	sw	x0,-20(x8)
 10002a8:	0680006f          	j	1000310 <upcase+0x7c>
 10002ac:	fec42783          	lw	x15,-20(x8)
 10002b0:	fdc42703          	lw	x14,-36(x8)
 10002b4:	00f707b3          	add	x15,x14,x15
 10002b8:	0007c703          	lbu	x14,0(x15)
 10002bc:	06000793          	li	x15,96
 10002c0:	04e7f263          	bgeu	x15,x14,1000304 <upcase+0x70>
 10002c4:	fec42783          	lw	x15,-20(x8)
 10002c8:	fdc42703          	lw	x14,-36(x8)
 10002cc:	00f707b3          	add	x15,x14,x15
 10002d0:	0007c703          	lbu	x14,0(x15)
 10002d4:	07a00793          	li	x15,122
 10002d8:	02e7e663          	bltu	x15,x14,1000304 <upcase+0x70>
 10002dc:	fec42783          	lw	x15,-20(x8)
 10002e0:	fdc42703          	lw	x14,-36(x8)
 10002e4:	00f707b3          	add	x15,x14,x15
 10002e8:	0007c703          	lbu	x14,0(x15)
 10002ec:	fec42783          	lw	x15,-20(x8)
 10002f0:	fdc42683          	lw	x13,-36(x8)
 10002f4:	00f687b3          	add	x15,x13,x15
 10002f8:	fdf77713          	andi	x14,x14,-33
 10002fc:	0ff77713          	andi	x14,x14,255
 1000300:	00e78023          	sb	x14,0(x15)
 1000304:	fec42783          	lw	x15,-20(x8)
 1000308:	00178793          	addi	x15,x15,1
 100030c:	fef42623          	sw	x15,-20(x8)
 1000310:	fec42783          	lw	x15,-20(x8)
 1000314:	fdc42703          	lw	x14,-36(x8)
 1000318:	00f707b3          	add	x15,x14,x15
 100031c:	0007c783          	lbu	x15,0(x15)
 1000320:	f80796e3          	bnez	x15,10002ac <upcase+0x18>
 1000324:	00000013          	nop
 1000328:	02c12403          	lw	x8,44(x2)
 100032c:	03010113          	addi	x2,x2,48
 1000330:	00008067          	ret

01000334 <my_strcmp>:
 1000334:	fd010113          	addi	x2,x2,-48
 1000338:	02812623          	sw	x8,44(x2)
 100033c:	03010413          	addi	x8,x2,48
 1000340:	fca42e23          	sw	x10,-36(x8)
 1000344:	fcb42c23          	sw	x11,-40(x8)
 1000348:	00100793          	li	x15,1
 100034c:	fef42623          	sw	x15,-20(x8)
 1000350:	fe042423          	sw	x0,-24(x8)
 1000354:	04c0006f          	j	10003a0 <my_strcmp+0x6c>
 1000358:	fe842783          	lw	x15,-24(x8)
 100035c:	fdc42703          	lw	x14,-36(x8)
 1000360:	00f707b3          	add	x15,x14,x15
 1000364:	0007c703          	lbu	x14,0(x15)
 1000368:	fe842783          	lw	x15,-24(x8)
 100036c:	fd842683          	lw	x13,-40(x8)
 1000370:	00f687b3          	add	x15,x13,x15
 1000374:	0007c783          	lbu	x15,0(x15)
 1000378:	40f707b3          	sub	x15,x14,x15
 100037c:	0017b793          	seqz	x15,x15
 1000380:	0ff7f793          	andi	x15,x15,255
 1000384:	00078713          	mv	x14,x15
 1000388:	fec42783          	lw	x15,-20(x8)
 100038c:	00e7f7b3          	and	x15,x15,x14
 1000390:	fef42623          	sw	x15,-20(x8)
 1000394:	fe842783          	lw	x15,-24(x8)
 1000398:	00178793          	addi	x15,x15,1
 100039c:	fef42423          	sw	x15,-24(x8)
 10003a0:	fe842783          	lw	x15,-24(x8)
 10003a4:	fdc42703          	lw	x14,-36(x8)
 10003a8:	00f707b3          	add	x15,x14,x15
 10003ac:	0007c783          	lbu	x15,0(x15)
 10003b0:	fa0794e3          	bnez	x15,1000358 <my_strcmp+0x24>
 10003b4:	fec42783          	lw	x15,-20(x8)
 10003b8:	00078513          	mv	x10,x15
 10003bc:	02c12403          	lw	x8,44(x2)
 10003c0:	03010113          	addi	x2,x2,48
 10003c4:	00008067          	ret
